Certificate:
    Data:
        Version: 3 (0x2)
        Serial Number: 1 (0x1)
    Signature Algorithm: sha1WithRSAEncryption
        Issuer: DC=org, DC=simple, O=Simple Inc, OU=Simple Signing CA, CN=Simple Signing CA
        Validity
            Not Before: Nov 21 07:50:44 2021 GMT
            Not After : Nov 21 07:50:44 2023 GMT
        Subject: DC=org, DC=simple, O=Simple Inc, CN=www.simple.org
        Subject Public Key Info:
            Public Key Algorithm: rsaEncryption
                Public-Key: (2048 bit)
                Modulus:
                    00:cd:cb:7f:f0:ff:9d:c7:a7:4a:ed:cb:5a:f4:38:
                    86:f6:fc:35:62:14:94:14:0c:05:3b:38:c4:bf:22:
                    99:cf:e6:3e:ac:80:66:4c:3f:e2:e3:5d:51:f6:75:
                    b1:6c:41:a5:ae:c2:31:1d:1d:de:97:5f:7f:4e:77:
                    39:3b:96:85:7d:8d:88:79:96:4f:11:75:ad:80:c9:
                    cb:f5:f9:47:df:01:76:5a:ee:1a:28:55:71:c5:61:
                    99:3f:06:f1:14:c1:58:ad:29:60:f8:9d:59:7c:dc:
                    5a:b7:65:bf:22:fe:aa:de:12:ec:09:66:48:e6:00:
                    c9:5a:a9:f6:c7:38:7c:cd:83:5c:d4:63:e3:89:4c:
                    82:52:f0:68:1a:a3:7e:48:1b:ee:ee:96:6f:bd:75:
                    e3:28:35:a5:ed:f8:6f:a9:12:45:1e:a7:26:61:37:
                    c8:c9:5e:a0:8a:9f:07:d5:70:ca:f9:2b:07:51:d6:
                    ca:b2:b3:38:ac:b7:d4:9c:b0:97:17:88:cf:21:96:
                    2e:84:ef:eb:4e:0a:f7:06:1e:42:f6:6b:e8:c9:65:
                    77:b4:57:da:77:93:ed:43:76:41:07:da:88:7d:1b:
                    0e:7c:a6:4e:ec:cc:07:26:89:88:f1:4d:68:96:bf:
                    bb:b5:15:58:f3:e3:89:06:b7:8b:06:e7:96:a0:31:
                    20:51
                Exponent: 65537 (0x10001)
        X509v3 extensions:
            X509v3 Key Usage: critical
                Digital Signature, Key Encipherment
            X509v3 Basic Constraints: 
                CA:FALSE
            X509v3 Extended Key Usage: 
                TLS Web Server Authentication, TLS Web Client Authentication
            X509v3 Subject Key Identifier: 
                83:D1:BB:89:2E:A2:C2:B9:C9:F9:7D:0C:5A:E4:85:88:CF:54:71:4D
            X509v3 Authority Key Identifier: 
                keyid:75:3E:52:EB:64:F3:F5:E7:36:3D:D4:30:73:42:C3:66:4E:8F:57:DC

            X509v3 Subject Alternative Name: 
                DNS:yourdomain.tld
    Signature Algorithm: sha1WithRSAEncryption
         ab:40:cb:e0:f8:04:c1:6d:10:b0:02:95:c1:51:b2:8e:0d:7a:
         44:28:5d:e3:7e:1f:0b:ea:5d:4f:60:1e:ab:bd:43:f2:df:55:
         89:40:d7:f8:7b:b1:5a:be:48:fd:f2:88:9e:75:2d:6b:fc:af:
         95:71:de:61:b8:17:80:5b:05:03:16:03:54:6b:07:2a:1a:30:
         cf:90:fa:d9:8d:76:03:e6:62:9d:e6:80:af:af:71:c6:05:e7:
         09:c6:91:c9:a9:82:8c:4e:b5:2a:d6:c8:f1:64:b9:50:94:08:
         55:2e:aa:e3:6e:5c:ae:91:9c:d1:c2:b7:d1:31:c8:f2:7e:e2:
         d4:50:66:a0:6f:2d:c2:43:5b:f5:03:99:02:84:13:9b:93:24:
         56:a9:c8:a0:c6:5f:8b:1f:cf:ae:84:4f:ef:dd:66:15:35:85:
         a1:76:84:9c:d1:26:7f:31:f1:19:a6:f6:1e:2c:6f:7a:53:f3:
         12:91:1d:5b:23:22:7e:0a:12:03:37:14:27:81:b7:53:fb:8f:
         bc:ec:88:3e:e2:6c:64:60:2a:07:01:e0:7d:59:cb:01:fa:b2:
         4e:67:4c:39:b3:b0:47:c1:89:bb:df:a0:d3:98:e0:83:a8:65:
         7e:cd:a9:95:d8:69:e5:d0:19:3c:d0:ae:1c:88:d7:01:ac:48:
         3c:dd:50:7e
-----BEGIN CERTIFICATE-----
MIID6TCCAtGgAwIBAgIBATANBgkqhkiG9w0BAQUFADB6MRMwEQYKCZImiZPyLGQB
GRYDb3JnMRYwFAYKCZImiZPyLGQBGRYGc2ltcGxlMRMwEQYDVQQKDApTaW1wbGUg
SW5jMRowGAYDVQQLDBFTaW1wbGUgU2lnbmluZyBDQTEaMBgGA1UEAwwRU2ltcGxl
IFNpZ25pbmcgQ0EwHhcNMjExMTIxMDc1MDQ0WhcNMjMxMTIxMDc1MDQ0WjBbMRMw
EQYKCZImiZPyLGQBGRYDb3JnMRYwFAYKCZImiZPyLGQBGRYGc2ltcGxlMRMwEQYD
VQQKDApTaW1wbGUgSW5jMRcwFQYDVQQDDA53d3cuc2ltcGxlLm9yZzCCASIwDQYJ
KoZIhvcNAQEBBQADggEPADCCAQoCggEBAM3Lf/D/ncenSu3LWvQ4hvb8NWIUlBQM
BTs4xL8imc/mPqyAZkw/4uNdUfZ1sWxBpa7CMR0d3pdff053OTuWhX2NiHmWTxF1
rYDJy/X5R98BdlruGihVccVhmT8G8RTBWK0pYPidWXzcWrdlvyL+qt4S7AlmSOYA
yVqp9sc4fM2DXNRj44lMglLwaBqjfkgb7u6Wb7114yg1pe34b6kSRR6nJmE3yMle
oIqfB9VwyvkrB1HWyrKzOKy31JywlxeIzyGWLoTv604K9wYeQvZr6Mlld7RX2neT
7UN2QQfaiH0bDnymTuzMByaJiPFNaJa/u7UVWPPjiQa3iwbnlqAxIFECAwEAAaOB
mDCBlTAOBgNVHQ8BAf8EBAMCBaAwCQYDVR0TBAIwADAdBgNVHSUEFjAUBggrBgEF
BQcDAQYIKwYBBQUHAwIwHQYDVR0OBBYEFIPRu4kuosK5yfl9DFrkhYjPVHFNMB8G
A1UdIwQYMBaAFHU+Uutk8/XnNj3UMHNCw2ZOj1fcMBkGA1UdEQQSMBCCDnlvdXJk
b21haW4udGxkMA0GCSqGSIb3DQEBBQUAA4IBAQCrQMvg+ATBbRCwApXBUbKODXpE
KF3jfh8L6l1PYB6rvUPy31WJQNf4e7Favkj98oiedS1r/K+Vcd5huBeAWwUDFgNU
awcqGjDPkPrZjXYD5mKd5oCvr3HGBecJxpHJqYKMTrUq1sjxZLlQlAhVLqrjblyu
kZzRwrfRMcjyfuLUUGagby3CQ1v1A5kChBObkyRWqcigxl+LH8+uhE/v3WYVNYWh
doSc0SZ/MfEZpvYeLG96U/MSkR1bIyJ+ChIDNxQngbdT+4+87Ig+4mxkYCoHAeB9
WcsB+rJOZ0w5s7BHwYm736DTmOCDqGV+zamV2Gnl0Bk80K4ciNcBrEg83VB+
-----END CERTIFICATE-----
