Certificate:
    Data:
        Version: 3 (0x2)
        Serial Number: 2 (0x2)
    Signature Algorithm: sha1WithRSAEncryption
        Issuer: DC=org, DC=simple, O=Simple Inc, OU=Simple Root CA, CN=Simple Root CA
        Validity
            Not Before: Nov 21 07:49:38 2021 GMT
            Not After : Nov 21 07:49:38 2031 GMT
        Subject: DC=org, DC=simple, O=Simple Inc, OU=Simple Signing CA, CN=Simple Signing CA
        Subject Public Key Info:
            Public Key Algorithm: rsaEncryption
                Public-Key: (2048 bit)
                Modulus:
                    00:d0:1c:ba:c5:5f:c5:58:9c:81:60:13:ba:9e:81:
                    2c:8b:ac:e6:02:fb:b3:09:95:e2:5a:f6:08:26:53:
                    00:1c:55:ab:d3:1d:48:0c:1c:43:05:4f:98:1d:67:
                    e3:67:b9:7a:c0:be:91:66:7a:10:71:c3:37:b5:4b:
                    36:ee:72:41:ca:1a:a3:ab:06:9d:81:dc:ad:56:43:
                    a9:f9:90:9c:36:16:45:d7:d5:bf:bc:30:7f:fd:93:
                    53:0e:51:79:6f:45:9f:af:39:d7:f9:9e:7b:1b:ec:
                    7f:d3:75:ba:d6:a5:ca:b2:44:2b:a4:83:7b:00:c7:
                    fe:66:0f:a7:f4:cb:b5:a1:cc:97:d2:0b:3c:91:da:
                    36:1c:6b:e3:63:bf:e2:cf:63:f5:81:2b:42:d5:55:
                    8f:89:f2:db:40:3f:25:24:e1:17:5e:98:6f:a0:c4:
                    cf:b5:28:f7:51:ae:67:87:3c:cd:6f:6e:67:d9:39:
                    e1:1d:9d:53:c0:17:a3:9a:06:bf:b7:81:e4:1a:5a:
                    c9:bc:ef:79:44:08:b6:a9:54:e1:83:9e:5c:ff:ab:
                    39:ee:9b:7c:82:3b:e1:2b:f9:28:b4:52:be:2d:d1:
                    9e:db:e9:c6:10:15:62:e0:b4:b1:46:c8:ea:c5:db:
                    64:c5:b5:67:5f:9d:f6:7f:b5:5d:23:ea:36:15:ef:
                    8b:33
                Exponent: 65537 (0x10001)
        X509v3 extensions:
            X509v3 Key Usage: critical
                Certificate Sign, CRL Sign
            X509v3 Basic Constraints: critical
                CA:TRUE, pathlen:0
            X509v3 Subject Key Identifier: 
                75:3E:52:EB:64:F3:F5:E7:36:3D:D4:30:73:42:C3:66:4E:8F:57:DC
            X509v3 Authority Key Identifier: 
                keyid:10:A4:7B:44:9C:E5:19:C3:FE:D2:FB:FC:CD:EC:12:40:3A:E4:E6:43

    Signature Algorithm: sha1WithRSAEncryption
         4a:c4:04:92:7d:45:10:31:84:f6:c7:2b:30:06:81:47:cc:95:
         0f:69:02:83:c2:18:d9:c2:33:62:b8:3d:72:38:c8:66:7a:32:
         b5:be:c3:5a:6f:58:72:da:c0:ee:c2:be:58:b5:e0:4f:8a:32:
         b3:ae:f2:49:da:42:0c:0d:ee:ed:84:c6:f1:5e:94:a0:aa:a0:
         49:58:2c:60:e1:0d:da:05:98:a1:91:b8:42:a1:2c:16:95:58:
         4d:23:50:aa:d2:dc:e4:2e:ac:e9:eb:ab:16:7a:5e:0f:08:79:
         40:f1:95:1f:d0:7e:a1:b5:6d:e1:dc:9c:71:24:12:a4:01:08:
         be:22:1b:50:be:4e:e4:9c:a4:e2:16:ab:4a:0e:44:a0:1a:94:
         42:de:02:63:2a:e4:db:d0:f2:7a:dd:f7:ba:d1:59:ba:27:b0:
         40:68:72:a1:f1:76:85:ec:15:8c:3e:0a:f6:84:d4:c0:4f:2a:
         95:6f:2d:68:b7:8b:5f:08:1f:e9:7b:31:2c:3f:b7:c7:de:36:
         ea:21:d9:7e:0d:35:7b:a2:23:db:d6:b9:ae:04:c1:3f:b7:51:
         4c:b0:ce:04:14:63:3f:9b:14:52:12:f3:36:6f:4f:0f:f5:90:
         61:4d:15:ba:df:0b:ab:95:da:d7:2a:aa:14:19:24:60:ec:0c:
         42:ca:22:16
-----BEGIN CERTIFICATE-----
MIIDzzCCAregAwIBAgIBAjANBgkqhkiG9w0BAQUFADB0MRMwEQYKCZImiZPyLGQB
GRYDb3JnMRYwFAYKCZImiZPyLGQBGRYGc2ltcGxlMRMwEQYDVQQKDApTaW1wbGUg
SW5jMRcwFQYDVQQLDA5TaW1wbGUgUm9vdCBDQTEXMBUGA1UEAwwOU2ltcGxlIFJv
b3QgQ0EwHhcNMjExMTIxMDc0OTM4WhcNMzExMTIxMDc0OTM4WjB6MRMwEQYKCZIm
iZPyLGQBGRYDb3JnMRYwFAYKCZImiZPyLGQBGRYGc2ltcGxlMRMwEQYDVQQKDApT
aW1wbGUgSW5jMRowGAYDVQQLDBFTaW1wbGUgU2lnbmluZyBDQTEaMBgGA1UEAwwR
U2ltcGxlIFNpZ25pbmcgQ0EwggEiMA0GCSqGSIb3DQEBAQUAA4IBDwAwggEKAoIB
AQDQHLrFX8VYnIFgE7qegSyLrOYC+7MJleJa9ggmUwAcVavTHUgMHEMFT5gdZ+Nn
uXrAvpFmehBxwze1SzbuckHKGqOrBp2B3K1WQ6n5kJw2FkXX1b+8MH/9k1MOUXlv
RZ+vOdf5nnsb7H/TdbrWpcqyRCukg3sAx/5mD6f0y7WhzJfSCzyR2jYca+Njv+LP
Y/WBK0LVVY+J8ttAPyUk4RdemG+gxM+1KPdRrmeHPM1vbmfZOeEdnVPAF6OaBr+3
geQaWsm873lECLapVOGDnlz/qznum3yCO+Er+Si0Ur4t0Z7b6cYQFWLgtLFGyOrF
22TFtWdfnfZ/tV0j6jYV74szAgMBAAGjZjBkMA4GA1UdDwEB/wQEAwIBBjASBgNV
HRMBAf8ECDAGAQH/AgEAMB0GA1UdDgQWBBR1PlLrZPP15zY91DBzQsNmTo9X3DAf
BgNVHSMEGDAWgBQQpHtEnOUZw/7S+/zN7BJAOuTmQzANBgkqhkiG9w0BAQUFAAOC
AQEASsQEkn1FEDGE9scrMAaBR8yVD2kCg8IY2cIzYrg9cjjIZnoytb7DWm9YctrA
7sK+WLXgT4oys67ySdpCDA3u7YTG8V6UoKqgSVgsYOEN2gWYoZG4QqEsFpVYTSNQ
qtLc5C6s6eurFnpeDwh5QPGVH9B+obVt4dyccSQSpAEIviIbUL5O5Jyk4harSg5E
oBqUQt4CYyrk29Dyet33utFZuiewQGhyofF2hewVjD4K9oTUwE8qlW8taLeLXwgf
6XsxLD+3x9426iHZfg01e6Ij29a5rgTBP7dRTLDOBBRjP5sUUhLzNm9PD/WQYU0V
ut8Lq5Xa1yqqFBkkYOwMQsoiFg==
-----END CERTIFICATE-----
